(ipoint_set_class
point_set
p0
(dp1
S'lOfRawPoints'
p2
(lp3
(ipoints_class
points
p4
(dp5
S'lOfError'
p6
(lp7
sS'lOfAccurateValues'
p8
(lp9
sS'energy'
p10
F1182.0
sS'lOfOperand'
p11
(lp12
sS'lOfRawValues'
p13
(lp14
sS'setUpNumber'
p15
I0
sS'quality_is_set'
p16
I01
sS'dealingWithPics'
p17
I00
sS'quality'
p18
cnumpy.core.multiarray
scalar
p19
(cnumpy
dtype
p20
(S'f8'
p21
I0
I1
tp22
Rp23
(I3
S'<'
p24
NNNI-1
I-1
I0
tp25
bS'\x00\x00\x00\x00\x00\x00\x00\x00'
p26
tp27
Rp28
sS'setUp'
p29
(lp30
(lp31
S'bta'
p32
aI32
aI0
aI0
aI0
aa(lp33
S'btm'
p34
aI32
aI0
aa(lp35
g32
aI32
aI1
aI0
aI0
aa(lp36
g32
aI32
aI1
aI0
aI0
aa(lp37
g32
aI32
aI0
aI0
aI0
aag37
ag37
asba(ipoints_class
points
p38
(dp39
g6
(lp40
sg8
(lp41
sg10
F1077.0
sg11
(lp42
sg13
(lp43
sg15
I0
sg16
I01
sg17
I00
sg18
g19
(g23
S'\xb2\xb2qk\xe8e\xbe?'
p44
tp45
Rp46
sg29
(lp47
(lp48
g32
aI32
aI1
aI0
aI0
aa(lp49
g34
aI32
aI3
aa(lp50
g32
aI32
aI6
aI0
aI0
aa(lp51
g32
aI32
aI7
aI0
aI0
aa(lp52
g32
aI32
aI0
aI0
aI0
aag52
ag52
asba(ipoints_class
points
p53
(dp54
g6
(lp55
sg8
(lp56
sg10
F1052.0
sg11
(lp57
sg13
(lp58
sg15
I0
sg16
I01
sg17
I00
sg18
g19
(g23
S'%\x9cM\xcb\x81\x8e\xd2?'
p59
tp60
Rp61
sg29
(lp62
(lp63
g32
aI32
aI1
aI0
aI0
aa(lp64
g34
aI32
aI4
aa(lp65
g32
aI32
aI0
aI0
aI0
aa(lp66
g32
aI32
aI7
aI0
aI0
aa(lp67
g32
aI32
aI0
aI0
aI0
aag67
a(lp68
g32
aI32
aI0
aI0
aI0
aasba(ipoints_class
points
p69
(dp70
g6
(lp71
sg8
(lp72
sg10
F1012.0
sg11
(lp73
sg13
(lp74
sg15
I0
sg16
I01
sg17
I00
sg18
g19
(g23
S'\xcc\xf36\xe8\xe7\xaa\xdd?'
p75
tp76
Rp77
sg29
(lp78
(lp79
g32
aI32
aI3
aI0
aI0
aa(lp80
g34
aI32
aI5
aa(lp81
g32
aI32
aI7
aI0
aI0
aa(lp82
g32
aI32
aI7
aI0
aI0
aa(lp83
g32
aI32
aI0
aI0
aI0
aag83
a(lp84
g32
aI32
aI0
aI0
aI0
aasba(ipoints_class
points
p85
(dp86
g6
(lp87
sg8
(lp88
sg10
F956.0
sg11
(lp89
sg13
(lp90
sg15
I0
sg16
I01
sg17
I00
sg18
g19
(g23
S'\xbd\r\xfa\xb9j\xaf\xe1?'
p91
tp92
Rp93
sg29
(lp94
(lp95
g32
aI32
aI6
aI0
aI0
aa(lp96
g34
aI32
aI7
aa(lp97
g32
aI32
aI1
aI0
aI0
aa(lp98
g32
aI32
aI4
aI0
aI0
aa(lp99
g32
aI32
aI0
aI0
aI0
aa(lp100
g32
aI32
aI0
aI0
aI0
aa(lp101
g32
aI32
aI0
aI0
aI0
aasbasS'maxY'
p102
I00
sS'maxX'
p103
I00
sS'delimeter_2_tuple'
p104
(lp105
I0
aI4
asS'set_type'
p106
S'pareto'
p107
sb.(ipoint_set_class
point_set
p0
(dp1
S'lOfRawPoints'
p2
(lp3
(ipoints_class
points
p4
(dp5
S'lOfError'
p6
(lp7
sS'lOfAccurateValues'
p8
(lp9
sS'energy'
p10
F1184.0
sS'lOfOperand'
p11
(lp12
sS'lOfRawValues'
p13
(lp14
sS'setUpNumber'
p15
I0
sS'quality_is_set'
p16
I01
sS'dealingWithPics'
p17
I00
sS'quality'
p18
cnumpy.core.multiarray
scalar
p19
(cnumpy
dtype
p20
(S'f8'
p21
I0
I1
tp22
Rp23
(I3
S'<'
p24
NNNI-1
I-1
I0
tp25
bS'\x00\x00\x00\x00\x00\x00\x00\x00'
p26
tp27
Rp28
sS'setUp'
p29
(lp30
(lp31
S'bta'
p32
aI32
aI0
aI0
aI0
aa(lp33
S'btm'
p34
aI32
aI0
aag31
ag31
ag31
ag31
ag31
asba(ipoints_class
points
p35
(dp36
g6
(lp37
sg8
(lp38
sg10
F1166.0
sg11
(lp39
sg13
(lp40
sg15
I0
sg16
I01
sg17
I00
sg18
g19
(g23
S'\x99u\xc5\xfa\xf2>Z?'
p41
tp42
Rp43
sg29
(lp44
(lp45
g32
aI32
aI0
aI0
aI0
aa(lp46
g34
aI32
aI0
aag45
ag45
a(lp47
g32
aI32
aI7
aI0
aI0
aa(lp48
g32
aI32
aI5
aI0
aI0
aa(lp49
g32
aI32
aI6
aI0
aI0
aasba(ipoints_class
points
p50
(dp51
g6
(lp52
sg8
(lp53
sg10
F1179.0
sg11
(lp54
sg13
(lp55
sg15
I0
sg16
I01
sg17
I00
sg18
g19
(g23
S'\xe5\xc6l\x9b\x14\xf7V?'
p56
tp57
Rp58
sg29
(lp59
(lp60
g32
aI32
aI0
aI0
aI0
aa(lp61
g34
aI32
aI0
aa(lp62
g32
aI32
aI0
aI0
aI0
aag62
ag62
ag62
a(lp63
g32
aI32
aI5
aI0
aI0
aasbasS'maxY'
p64
I00
sS'maxX'
p65
I00
sS'delimeter_2_tuple'
p66
(lp67
I4
aI7
asS'set_type'
p68
S'pareto'
p69
sb.