(ipoints_class
points
p0
(dp1
S'lOfError'
p2
(lp3
sS'lOfAccurateValues'
p4
(lp5
sS'energy'
p6
F948.0
sS'lOfOperand'
p7
(lp8
sS'lOfRawValues'
p9
(lp10
sS'setUpNumber'
p11
I0
sS'quality_is_set'
p12
I01
sS'dealingWithPics'
p13
I00
sS'quality'
p14
cnumpy.core.multiarray
scalar
p15
(cnumpy
dtype
p16
(S'f8'
p17
I0
I1
tp18
Rp19
(I3
S'<'
p20
NNNI-1
I-1
I0
tp21
bS'\xbd\r\xfa\xb9j\xaf\xe1?'
p22
tp23
Rp24
sS'setUp'
p25
(lp26
(lp27
S'bta'
p28
aI32
aI6
aI0
aI0
aa(lp29
S'btm'
p30
aI32
aI7
aa(lp31
g28
aI32
aI5
aI0
aI0
aa(lp32
g28
aI32
aI0
aI0
aI0
aa(lp33
g28
aI32
aI0
aI0
aI0
aa(lp34
g28
aI32
aI2
aI0
aI0
aa(lp35
g28
aI32
aI6
aI0
aI0
aasb.(ipoints_class
points
p0
(dp1
S'lOfError'
p2
(lp3
sS'lOfAccurateValues'
p4
(lp5
sS'energy'
p6
F1008.0
sS'lOfOperand'
p7
(lp8
sS'lOfRawValues'
p9
(lp10
sS'setUpNumber'
p11
I0
sS'quality_is_set'
p12
I01
sS'dealingWithPics'
p13
I00
sS'quality'
p14
cnumpy.core.multiarray
scalar
p15
(cnumpy
dtype
p16
(S'f8'
p17
I0
I1
tp18
Rp19
(I3
S'<'
p20
NNNI-1
I-1
I0
tp21
bS'*d\xef!\xf5\xe9\xc6?'
p22
tp23
Rp24
sS'setUp'
p25
(lp26
(lp27
S'bta'
p28
aI32
aI4
aI0
aI0
aa(lp29
S'btm'
p30
aI32
aI5
aa(lp31
g28
aI32
aI4
aI0
aI0
aa(lp32
g28
aI32
aI2
aI0
aI0
aa(lp33
g28
aI32
aI6
aI0
aI0
aa(lp34
g28
aI32
aI4
aI0
aI0
aa(lp35
g28
aI32
aI1
aI0
aI0
aasb.(ipoints_class
points
p0
(dp1
S'lOfError'
p2
(lp3
sS'lOfAccurateValues'
p4
(lp5
sS'energy'
p6
F1183.0
sS'lOfOperand'
p7
(lp8
sS'lOfRawValues'
p9
(lp10
sS'setUpNumber'
p11
I0
sS'quality_is_set'
p12
I01
sS'dealingWithPics'
p13
I00
sS'quality'
p14
cnumpy.core.multiarray
scalar
p15
(cnumpy
dtype
p16
(S'f8'
p17
I0
I1
tp18
Rp19
(I3
S'<'
p20
NNNI-1
I-1
I0
tp21
bS'\x00\x00\x00\x00\x00\x00\x00\x00'
p22
tp23
Rp24
sS'setUp'
p25
(lp26
(lp27
S'bta'
p28
aI32
aI0
aI0
aI0
aa(lp29
S'btm'
p30
aI32
aI0
aa(lp31
g28
aI32
aI1
aI0
aI0
aag27
a(lp32
g28
aI32
aI0
aI0
aI0
aag32
ag32
asb.(ipoints_class
points
p0
(dp1
S'lOfError'
p2
(lp3
sS'lOfAccurateValues'
p4
(lp5
sS'energy'
p6
F946.0
sS'lOfOperand'
p7
(lp8
sS'lOfRawValues'
p9
(lp10
sS'setUpNumber'
p11
I0
sS'quality_is_set'
p12
I01
sS'dealingWithPics'
p13
I00
sS'quality'
p14
cnumpy.core.multiarray
scalar
p15
(cnumpy
dtype
p16
(S'f8'
p17
I0
I1
tp18
Rp19
(I3
S'<'
p20
NNNI-1
I-1
I0
tp21
bS'\xec~\xaa\xc1_\xda\xee?'
p22
tp23
Rp24
sS'setUp'
p25
(lp26
(lp27
S'bta'
p28
aI32
aI4
aI0
aI0
aa(lp29
S'btm'
p30
aI32
aI7
aa(lp31
g28
aI32
aI4
aI0
aI0
aa(lp32
g28
aI32
aI2
aI0
aI0
aa(lp33
g28
aI32
aI6
aI0
aI0
aa(lp34
g28
aI32
aI4
aI0
aI0
aa(lp35
g28
aI32
aI1
aI0
aI0
aasb.(ipoints_class
points
p0
(dp1
S'lOfError'
p2
(lp3
sS'lOfAccurateValues'
p4
(lp5
sS'energy'
p6
F1043.0
sS'lOfOperand'
p7
(lp8
sS'lOfRawValues'
p9
(lp10
sS'setUpNumber'
p11
I0
sS'quality_is_set'
p12
I01
sS'dealingWithPics'
p13
I00
sS'quality'
p14
cnumpy.core.multiarray
scalar
p15
(cnumpy
dtype
p16
(S'f8'
p17
I0
I1
tp18
Rp19
(I3
S'<'
p20
NNNI-1
I-1
I0
tp21
bS'Q\xa7\xa0!\xb8\xfc\xbf?'
p22
tp23
Rp24
sS'setUp'
p25
(lp26
(lp27
S'bta'
p28
aI32
aI3
aI0
aI0
aa(lp29
S'btm'
p30
aI32
aI4
aa(lp31
g28
aI32
aI2
aI0
aI0
aa(lp32
g28
aI32
aI0
aI0
aI0
aa(lp33
g28
aI32
aI6
aI0
aI0
aa(lp34
g28
aI32
aI1
aI0
aI0
aa(lp35
g28
aI32
aI5
aI0
aI0
aasb.