(ipoints_class
points
p0
(dp1
S'lOfError'
p2
(lp3
(lp4
F0.0
aF0.0
aF0.0
aF0.0
aF0.0
aF0.0
aF0.0
aF0.0
aF0.0
aF0.0
aF0.0
aF0.0
aF0.0
aF0.0
aF0.0
aF0.0
aasS'lOfAccurateValues'
p5
(lp6
(lp7
(S'3.999736'
p8
S'195.002380'
p9
S'0.002787'
p10
S'1.000000'
p11
tp12
a(S'5.997701'
p13
S'191.996445'
p14
S'-0.003183'
p15
S'1.000000'
p16
tp17
a(S'24.996798'
p18
S'10.005333'
p19
S'1.002195'
p20
S'1.000000'
p21
tp22
a(S'30.004278'
p23
S'8.004202'
p24
S'1.000917'
p25
S'1.000000'
p26
tp27
a(S'8.999211'
p28
S'55.000271'
p29
S'-0.008819'
p30
S'3.000000'
p31
tp32
a(S'5.998720'
p33
S'33.998940'
p34
S'0.999768'
p35
S'3.000000'
p36
tp37
a(S'4.998889'
p38
S'33.999245'
p39
S'-0.000340'
p40
S'3.000000'
p41
tp42
a(S'11.997598'
p43
S'37.997299'
p44
S'-0.006323'
p45
S'3.000000'
p46
tp47
a(S'17.997877'
p48
S'45.994846'
p49
S'0.005245'
p50
S'3.000000'
p51
tp52
a(S'8.005999'
p53
S'67.977890'
p54
S'1.017406'
p55
S'3.000000'
p56
tp57
a(S'9.000000'
p58
S'5.000000'
p59
S'1.000000'
p60
S'4.000000'
p61
tp62
a(S'7.002994'
p63
S'28.009270'
p64
S'2.011722'
p65
S'4.000000'
p66
tp67
a(S'14.009891'
p68
S'7.999916'
p69
S'0.007138'
p70
S'4.000000'
p71
tp72
a(S'5.000000'
p73
S'36.000000'
p74
S'2.000000'
p75
S'4.000000'
p76
tp77
a(S'8.004709'
p78
S'18.003462'
p79
S'2.010234'
p80
S'4.000000'
p81
tp82
a(S'14.005737'
p83
S'7.998990'
p84
S'2.007648'
p85
S'4.000000'
p86
tp87
aasS'energy'
p88
F2080.0
sS'lOfOperand'
p89
(lp90
(lp91
S'1'
p92
aS'12'
p93
aS'11'
p94
aS'3'
p95
aS'4'
p96
aS'5'
p97
aS'\n'
p98
aasS'lOfRawValues'
p99
(lp100
(lp101
(F3.999736
S'195.002380'
p102
S'0.002787'
p103
S'1.000000'
p104
tp105
a(F5.997701
S'191.996445'
p106
S'-0.003183'
p107
S'1.000000'
p108
tp109
a(F24.996798
S'10.005333'
p110
S'1.002195'
p111
S'1.000000'
p112
tp113
a(F30.004278
S'8.004202'
p114
S'1.000917'
p115
S'1.000000'
p116
tp117
a(F8.999211
S'55.000271'
p118
S'-0.008819'
p119
S'3.000000'
p120
tp121
a(F5.99872
S'33.998940'
p122
S'0.999768'
p123
S'3.000000'
p124
tp125
a(F4.998889
S'33.999245'
p126
S'-0.000340'
p127
S'3.000000'
p128
tp129
a(F11.997598
S'37.997299'
p130
S'-0.006323'
p131
S'3.000000'
p132
tp133
a(F17.997877
S'45.994846'
p134
S'0.005245'
p135
S'3.000000'
p136
tp137
a(F8.005999
S'67.977890'
p138
S'1.017406'
p139
S'3.000000'
p140
tp141
a(F9.0
S'5.000000'
p142
S'1.000000'
p143
S'4.000000'
p144
tp145
a(F7.002994
S'28.009270'
p146
S'2.011722'
p147
S'4.000000'
p148
tp149
a(F14.009891
S'7.999916'
p150
S'0.007138'
p151
S'4.000000'
p152
tp153
a(F5.0
S'36.000000'
p154
S'2.000000'
p155
S'4.000000'
p156
tp157
a(F8.004709
S'18.003462'
p158
S'2.010234'
p159
S'4.000000'
p160
tp161
a(F14.005737
S'7.998990'
p162
S'2.007648'
p163
S'4.000000'
p164
tp165
aasS'quality_is_set'
p166
I01
sS'dealingWithPics'
p167
I00
sS'inputObj'
p168
(iinputs
inputClass
p169
(dp170
bsS'quality'
p171
cnumpy.core.multiarray
scalar
p172
(cnumpy
dtype
p173
(S'f8'
p174
I0
I1
tp175
Rp176
(I3
S'<'
p177
NNNI-1
I-1
I0
tp178
bS'\x00\x00\x00\x00\x00\x00\x00\x00'
p179
tp180
Rp181
sS'setUp'
p182
(lp183
(lp184
S'btm'
p185
aI32
aI0
aa(lp186
S'bta'
p187
aI32
aI0
aI0
aI0
aag184
ag186
a(lp188
S'bta'
p189
aI32
aI0
aI0
aI0
aasb.(ipoints_class
points
p0
(dp1
S'lOfError'
p2
(lp3
(lp4
F0.0
aF0.0
aF0.0
aF0.0
aF1.000000000279556e-12
aF0.0
aF4.999999992515995e-12
aF1.000000000279556e-12
aF4.999999999621423e-12
aF0.0
aF9.99999998503199e-13
aF0.0
aF0.0
aF0.0
aF0.0
aF5.000000010279564e-12
aasS'lOfAccurateValues'
p5
(lp6
(lp7
(S'3.999736'
p8
S'195.002380'
p9
S'0.002787'
p10
S'1.000000'
p11
tp12
a(S'5.997701'
p13
S'191.996445'
p14
S'-0.003183'
p15
S'1.000000'
p16
tp17
a(S'24.996798'
p18
S'10.005333'
p19
S'1.002195'
p20
S'1.000000'
p21
tp22
a(S'30.004278'
p23
S'8.004202'
p24
S'1.000917'
p25
S'1.000000'
p26
tp27
a(S'8.999211'
p28
S'55.000271'
p29
S'-0.008819'
p30
S'3.000000'
p31
tp32
a(S'5.998720'
p33
S'33.998940'
p34
S'0.999768'
p35
S'3.000000'
p36
tp37
a(S'4.998889'
p38
S'33.999245'
p39
S'-0.000340'
p40
S'3.000000'
p41
tp42
a(S'11.997598'
p43
S'37.997299'
p44
S'-0.006323'
p45
S'3.000000'
p46
tp47
a(S'17.997877'
p48
S'45.994846'
p49
S'0.005245'
p50
S'3.000000'
p51
tp52
a(S'8.005999'
p53
S'67.977890'
p54
S'1.017406'
p55
S'3.000000'
p56
tp57
a(S'9.000000'
p58
S'5.000000'
p59
S'1.000000'
p60
S'4.000000'
p61
tp62
a(S'7.002994'
p63
S'28.009270'
p64
S'2.011722'
p65
S'4.000000'
p66
tp67
a(S'14.009891'
p68
S'7.999916'
p69
S'0.007138'
p70
S'4.000000'
p71
tp72
a(S'5.000000'
p73
S'36.000000'
p74
S'2.000000'
p75
S'4.000000'
p76
tp77
a(S'8.004709'
p78
S'18.003462'
p79
S'2.010234'
p80
S'4.000000'
p81
tp82
a(S'14.005737'
p83
S'7.998990'
p84
S'2.007648'
p85
S'4.000000'
p86
tp87
aasS'energy'
p88
F2073.0
sS'lOfOperand'
p89
(lp90
(lp91
S'1'
p92
aS'12'
p93
aS'11'
p94
aS'3'
p95
aS'4'
p96
aS'5'
p97
aS'\n'
p98
aasS'lOfRawValues'
p99
(lp100
(lp101
(F3.999736
S'195.002380'
p102
S'0.002788'
p103
S'1.000000'
p104
tp105
a(F5.997701
S'191.996445'
p106
S'-0.003183'
p107
S'1.000000'
p108
tp109
a(F24.996798
S'10.005333'
p110
S'1.002196'
p111
S'1.000000'
p112
tp113
a(F30.00428
S'8.004203'
p114
S'1.000917'
p115
S'1.000000'
p116
tp117
a(F8.999211
S'55.000271'
p118
S'-0.008819'
p119
S'3.000000'
p120
tp121
a(F5.998719
S'33.998940'
p122
S'0.999768'
p123
S'3.000000'
p124
tp125
a(F4.998889
S'33.999245'
p126
S'-0.000340'
p127
S'3.000000'
p128
tp129
a(F11.997598
S'37.997299'
p130
S'-0.006323'
p131
S'3.000000'
p132
tp133
a(F17.997877
S'45.994846'
p134
S'0.005245'
p135
S'3.000000'
p136
tp137
a(F8.005999
S'67.977890'
p138
S'1.017406'
p139
S'3.000000'
p140
tp141
a(F9.0
S'5.000000'
p142
S'1.000000'
p143
S'4.000000'
p144
tp145
a(F7.002995
S'28.009270'
p146
S'2.011723'
p147
S'4.000000'
p148
tp149
a(F14.009892
S'7.999914'
p150
S'0.007139'
p151
S'4.000000'
p152
tp153
a(F5.0
S'36.000000'
p154
S'2.000000'
p155
S'4.000000'
p156
tp157
a(F8.00471
S'18.003460'
p158
S'2.010235'
p159
S'4.000000'
p160
tp161
a(F14.005737
S'7.998989'
p162
S'2.007647'
p163
S'4.000000'
p164
tp165
aasS'quality_is_set'
p166
I01
sS'dealingWithPics'
p167
I00
sS'inputObj'
p168
(iinputs
inputClass
p169
(dp170
bsS'quality'
p171
cnumpy.core.multiarray
scalar
p172
(cnumpy
dtype
p173
(S'f8'
p174
I0
I1
tp175
Rp176
(I3
S'<'
p177
NNNI-1
I-1
I0
tp178
bS'\x8eW\x80)\xc1\xb4\x17='
p179
tp180
Rp181
sS'setUp'
p182
(lp183
(lp184
S'btm'
p185
aI32
aI0
aa(lp186
S'bta'
p187
aI32
aI0
aI0
aI0
aag184
ag186
a(lp188
S'bta'
p189
aI32
aI7
aI0
aI0
aasb.(ipoints_class
points
p0
(dp1
S'lOfError'
p2
(lp3
(lp4
F0.0
aF0.0
aF3.999999994012796e-12
aF0.0
aF1.000000000279556e-12
aF0.0
aF7.99999999513102e-12
aF1.000000000279556e-12
aF1.699999999942338e-11
aF0.0
aF0.0
aF0.0
aF9.99999998503199e-13
aF3.999999994012796e-12
aF1.0000000020559128e-12
aF8.000000009341876e-12
aasS'lOfAccurateValues'
p5
(lp6
(lp7
(S'3.999736'
p8
S'195.002380'
p9
S'0.002787'
p10
S'1.000000'
p11
tp12
a(S'5.997701'
p13
S'191.996445'
p14
S'-0.003183'
p15
S'1.000000'
p16
tp17
a(S'24.996798'
p18
S'10.005333'
p19
S'1.002195'
p20
S'1.000000'
p21
tp22
a(S'30.004278'
p23
S'8.004202'
p24
S'1.000917'
p25
S'1.000000'
p26
tp27
a(S'8.999211'
p28
S'55.000271'
p29
S'-0.008819'
p30
S'3.000000'
p31
tp32
a(S'5.998720'
p33
S'33.998940'
p34
S'0.999768'
p35
S'3.000000'
p36
tp37
a(S'4.998889'
p38
S'33.999245'
p39
S'-0.000340'
p40
S'3.000000'
p41
tp42
a(S'11.997598'
p43
S'37.997299'
p44
S'-0.006323'
p45
S'3.000000'
p46
tp47
a(S'17.997877'
p48
S'45.994846'
p49
S'0.005245'
p50
S'3.000000'
p51
tp52
a(S'8.005999'
p53
S'67.977890'
p54
S'1.017406'
p55
S'3.000000'
p56
tp57
a(S'9.000000'
p58
S'5.000000'
p59
S'1.000000'
p60
S'4.000000'
p61
tp62
a(S'7.002994'
p63
S'28.009270'
p64
S'2.011722'
p65
S'4.000000'
p66
tp67
a(S'14.009891'
p68
S'7.999916'
p69
S'0.007138'
p70
S'4.000000'
p71
tp72
a(S'5.000000'
p73
S'36.000000'
p74
S'2.000000'
p75
S'4.000000'
p76
tp77
a(S'8.004709'
p78
S'18.003462'
p79
S'2.010234'
p80
S'4.000000'
p81
tp82
a(S'14.005737'
p83
S'7.998990'
p84
S'2.007648'
p85
S'4.000000'
p86
tp87
aasS'energy'
p88
F2072.0
sS'lOfOperand'
p89
(lp90
(lp91
S'1'
p92
aS'12'
p93
aS'11'
p94
aS'3'
p95
aS'4'
p96
aS'5'
p97
aS'\n'
p98
aasS'lOfRawValues'
p99
(lp100
(lp101
(F3.999736
S'195.002380'
p102
S'0.002788'
p103
S'1.000000'
p104
tp105
a(F5.997701
S'191.996445'
p106
S'-0.003183'
p107
S'1.000000'
p108
tp109
a(F24.996799
S'10.005333'
p110
S'1.002197'
p111
S'1.000000'
p112
tp113
a(F30.00428
S'8.004204'
p114
S'1.000916'
p115
S'1.000000'
p116
tp117
a(F8.999211
S'55.000271'
p118
S'-0.008819'
p119
S'3.000000'
p120
tp121
a(F5.99872
S'33.998940'
p122
S'0.999769'
p123
S'3.000000'
p124
tp125
a(F4.998889
S'33.999245'
p126
S'-0.000340'
p127
S'3.000000'
p128
tp129
a(F11.997599
S'37.997299'
p130
S'-0.006323'
p131
S'3.000000'
p132
tp133
a(F17.997875
S'45.994846'
p134
S'0.005245'
p135
S'3.000000'
p136
tp137
a(F8.005997
S'67.977890'
p138
S'1.017406'
p139
S'3.000000'
p140
tp141
a(F9.0
S'5.000000'
p142
S'1.000000'
p143
S'4.000000'
p144
tp145
a(F7.002995
S'28.009270'
p146
S'2.011723'
p147
S'4.000000'
p148
tp149
a(F14.009892
S'7.999912'
p150
S'0.007141'
p151
S'4.000000'
p152
tp153
a(F5.0
S'36.000000'
p154
S'2.000000'
p155
S'4.000000'
p156
tp157
a(F8.004711
S'18.003460'
p158
S'2.010237'
p159
S'4.000000'
p160
tp161
a(F14.005737
S'7.998989'
p162
S'2.007645'
p163
S'4.000000'
p164
tp165
aasS'quality_is_set'
p166
I01
sS'dealingWithPics'
p167
I00
sS'inputObj'
p168
(iinputs
inputClass
p169
(dp170
bsS'quality'
p171
cnumpy.core.multiarray
scalar
p172
(cnumpy
dtype
p173
(S'f8'
p174
I0
I1
tp175
Rp176
(I3
S'<'
p177
NNNI-1
I-1
I0
tp178
bS'\xa0H\xc2s\xf1\xa1-='
p179
tp180
Rp181
sS'setUp'
p182
(lp183
(lp184
S'btm'
p185
aI32
aI0
aa(lp186
S'bta'
p187
aI32
aI0
aI0
aI0
aag184
ag186
a(lp188
S'bta'
p189
aI32
aI8
aI0
aI0
aasb.(ipoints_class
points
p0
(dp1
S'lOfError'
p2
(lp3
(lp4
F0.0
aF0.0
aF0.0
aF0.0
aF0.0
aF0.0
aF3.999999994012796e-12
aF0.0
aF0.0
aF0.0
aF0.0
aF0.0
aF0.0
aF0.0
aF0.0
aF0.0
aasS'lOfAccurateValues'
p5
(lp6
(lp7
(S'3.999736'
p8
S'195.002380'
p9
S'0.002787'
p10
S'1.000000'
p11
tp12
a(S'5.997701'
p13
S'191.996445'
p14
S'-0.003183'
p15
S'1.000000'
p16
tp17
a(S'24.996798'
p18
S'10.005333'
p19
S'1.002195'
p20
S'1.000000'
p21
tp22
a(S'30.004278'
p23
S'8.004202'
p24
S'1.000917'
p25
S'1.000000'
p26
tp27
a(S'8.999211'
p28
S'55.000271'
p29
S'-0.008819'
p30
S'3.000000'
p31
tp32
a(S'5.998720'
p33
S'33.998940'
p34
S'0.999768'
p35
S'3.000000'
p36
tp37
a(S'4.998889'
p38
S'33.999245'
p39
S'-0.000340'
p40
S'3.000000'
p41
tp42
a(S'11.997598'
p43
S'37.997299'
p44
S'-0.006323'
p45
S'3.000000'
p46
tp47
a(S'17.997877'
p48
S'45.994846'
p49
S'0.005245'
p50
S'3.000000'
p51
tp52
a(S'8.005999'
p53
S'67.977890'
p54
S'1.017406'
p55
S'3.000000'
p56
tp57
a(S'9.000000'
p58
S'5.000000'
p59
S'1.000000'
p60
S'4.000000'
p61
tp62
a(S'7.002994'
p63
S'28.009270'
p64
S'2.011722'
p65
S'4.000000'
p66
tp67
a(S'14.009891'
p68
S'7.999916'
p69
S'0.007138'
p70
S'4.000000'
p71
tp72
a(S'5.000000'
p73
S'36.000000'
p74
S'2.000000'
p75
S'4.000000'
p76
tp77
a(S'8.004709'
p78
S'18.003462'
p79
S'2.010234'
p80
S'4.000000'
p81
tp82
a(S'14.005737'
p83
S'7.998990'
p84
S'2.007648'
p85
S'4.000000'
p86
tp87
aasS'energy'
p88
F2077.0
sS'lOfOperand'
p89
(lp90
(lp91
S'1'
p92
aS'12'
p93
aS'11'
p94
aS'3'
p95
aS'4'
p96
aS'5'
p97
aS'\n'
p98
aasS'lOfRawValues'
p99
(lp100
(lp101
(F3.999736
S'195.002380'
p102
S'0.002787'
p103
S'1.000000'
p104
tp105
a(F5.997701
S'191.996445'
p106
S'-0.003183'
p107
S'1.000000'
p108
tp109
a(F24.996798
S'10.005333'
p110
S'1.002196'
p111
S'1.000000'
p112
tp113
a(F30.004278
S'8.004202'
p114
S'1.000917'
p115
S'1.000000'
p116
tp117
a(F8.999211
S'55.000271'
p118
S'-0.008819'
p119
S'3.000000'
p120
tp121
a(F5.99872
S'33.998940'
p122
S'0.999768'
p123
S'3.000000'
p124
tp125
a(F4.998889
S'33.999245'
p126
S'-0.000340'
p127
S'3.000000'
p128
tp129
a(F11.997598
S'37.997299'
p130
S'-0.006323'
p131
S'3.000000'
p132
tp133
a(F17.997877
S'45.994846'
p134
S'0.005245'
p135
S'3.000000'
p136
tp137
a(F8.005999
S'67.977890'
p138
S'1.017406'
p139
S'3.000000'
p140
tp141
a(F9.0
S'5.000000'
p142
S'1.000000'
p143
S'4.000000'
p144
tp145
a(F7.002994
S'28.009270'
p146
S'2.011722'
p147
S'4.000000'
p148
tp149
a(F14.009891
S'7.999916'
p150
S'0.007138'
p151
S'4.000000'
p152
tp153
a(F5.0
S'36.000000'
p154
S'2.000000'
p155
S'4.000000'
p156
tp157
a(F8.004709
S'18.003460'
p158
S'2.010234'
p159
S'4.000000'
p160
tp161
a(F14.005737
S'7.998990'
p162
S'2.007648'
p163
S'4.000000'
p164
tp165
aasS'quality_is_set'
p166
I01
sS'dealingWithPics'
p167
I00
sS'inputObj'
p168
(iinputs
inputClass
p169
(dp170
bsS'quality'
p171
cnumpy.core.multiarray
scalar
p172
(cnumpy
dtype
p173
(S'f8'
p174
I0
I1
tp175
Rp176
(I3
S'<'
p177
NNNI-1
I-1
I0
tp178
bS'F\x9f\xff\xcer\x12\xf5<'
p179
tp180
Rp181
sS'setUp'
p182
(lp183
(lp184
S'btm'
p185
aI32
aI0
aa(lp186
S'bta'
p187
aI32
aI0
aI0
aI0
aag184
ag186
a(lp188
S'bta'
p189
aI32
aI3
aI0
aI0
aasb.(ipoints_class
points
p0
(dp1
S'lOfError'
p2
(lp3
(lp4
F0.0
aF0.0
aF6.399999990420474e-11
aF0.0
aF5.000000008503207e-12
aF0.0
aF3.999999994012796e-12
aF2.899999999922534e-11
aF9.99999998503199e-13
aF0.0
aF0.0
aF9.99999998503199e-13
aF3.199999998052408e-11
aF1.0000000020559128e-12
aF0.0
aasS'lOfAccurateValues'
p5
(lp6
(lp7
(S'3.999736'
p8
S'195.002380'
p9
S'0.002787'
p10
S'1.000000'
p11
tp12
a(S'5.997701'
p13
S'191.996445'
p14
S'-0.003183'
p15
S'1.000000'
p16
tp17
a(S'24.996798'
p18
S'10.005333'
p19
S'1.002195'
p20
S'1.000000'
p21
tp22
a(S'30.004278'
p23
S'8.004202'
p24
S'1.000917'
p25
S'1.000000'
p26
tp27
a(S'8.999211'
p28
S'55.000271'
p29
S'-0.008819'
p30
S'3.000000'
p31
tp32
a(S'5.998720'
p33
S'33.998940'
p34
S'0.999768'
p35
S'3.000000'
p36
tp37
a(S'4.998889'
p38
S'33.999245'
p39
S'-0.000340'
p40
S'3.000000'
p41
tp42
a(S'11.997598'
p43
S'37.997299'
p44
S'-0.006323'
p45
S'3.000000'
p46
tp47
a(S'17.997877'
p48
S'45.994846'
p49
S'0.005245'
p50
S'3.000000'
p51
tp52
a(S'8.005999'
p53
S'67.977890'
p54
S'1.017406'
p55
S'3.000000'
p56
tp57
a(S'9.000000'
p58
S'5.000000'
p59
S'1.000000'
p60
S'4.000000'
p61
tp62
a(S'7.002994'
p63
S'28.009270'
p64
S'2.011722'
p65
S'4.000000'
p66
tp67
a(S'14.009891'
p68
S'7.999916'
p69
S'0.007138'
p70
S'4.000000'
p71
tp72
a(S'5.000000'
p73
S'36.000000'
p74
S'2.000000'
p75
S'4.000000'
p76
tp77
a(S'8.004709'
p78
S'18.003462'
p79
S'2.010234'
p80
S'4.000000'
p81
tp82
a(S'14.005737'
p83
S'7.998990'
p84
S'2.007648'
p85
S'4.000000'
p86
tp87
aasS'energy'
p88
F1757.0
sS'lOfOperand'
p89
(lp90
(lp91
S'1'
p92
aS'12'
p93
aS'11'
p94
aS'3'
p95
aS'4'
p96
aS'5'
p97
aS'\n'
p98
aasS'lOfRawValues'
p99
(lp100
(lp101
(F3.999736
S'195.002380'
p102
S'0.002787'
p103
S'1.000000'
p104
tp105
a(F5.997701
S'191.996445'
p106
S'-0.003182'
p107
S'1.000000'
p108
tp109
a(F24.996798
S'10.005332'
p110
S'1.002198'
p111
S'1.000000'
p112
tp113
a(F30.004278
S'8.004202'
p114
S'1.000918'
p115
S'1.000000'
p116
tp117
a(F8.999212
S'55.000271'
p118
S'-0.008816'
p119
S'3.000000'
p120
tp121
a(F5.99872
S'33.998940'
p122
S'0.999769'
p123
S'3.000000'
p124
tp125
a(F4.998889
S'33.999245'
p126
S'-0.000339'
p127
S'3.000000'
p128
tp129
a(F11.997599
S'37.997299'
p130
S'-0.006321'
p131
S'3.000000'
p132
tp133
a(F17.997881
S'45.994850'
p134
S'0.005245'
p135
S'3.000000'
p136
tp137
a(F8.005999
S'67.977898'
p138
S'1.017403'
p139
S'3.000000'
p140
tp141
a(F9.0
S'5.000000'
p142
S'1.000000'
p143
S'4.000000'
p144
tp145
a(F7.002995
S'28.009268'
p146
S'2.011719'
p147
S'4.000000'
p148
tp149
a(F14.009886
S'7.999918'
p150
S'0.007135'
p151
S'4.000000'
p152
tp153
a(F5.0
S'36.000000'
p154
S'2.000000'
p155
S'4.000000'
p156
tp157
a(F8.004709
S'18.003460'
p158
S'2.010235'
p159
S'4.000000'
p160
tp161
aasS'quality_is_set'
p162
I01
sS'dealingWithPics'
p163
I00
sS'inputObj'
p164
(iinputs
inputClass
p165
(dp166
bsS'quality'
p167
cnumpy.core.multiarray
scalar
p168
(cnumpy
dtype
p169
(S'f8'
p170
I0
I1
tp171
Rp172
(I3
S'<'
p173
NNNI-1
I-1
I0
tp174
bS'\x07\xe5cy\xa9\x0eH='
p175
tp176
Rp177
sS'setUp'
p178
(lp179
(lp180
S'btm'
p181
aI32
aI1
aa(lp182
S'bta'
p183
aI32
aI2
aI0
aI0
aa(lp184
g181
aI32
aI9
aa(lp185
g183
aI32
aI4
aI0
aI0
aa(lp186
S'bta'
p187
aI32
aI7
aI0
aI0
aasb.(ipoints_class
points
p0
(dp1
S'lOfError'
p2
(lp3
(lp4
F0.0
aF0.0
aF6.499999990626066e-11
aF0.0
aF1.6000000004472895e-11
aF0.0
aF4.999999992515995e-12
aF3.400000000062312e-11
aF9.99999998503199e-13
aF0.0
aF0.0
aF9.99999998503199e-13
aF4.000000008223651e-12
aF1.0000000020559128e-12
aF0.0
aasS'lOfAccurateValues'
p5
(lp6
(lp7
(S'3.999736'
p8
S'195.002380'
p9
S'0.002787'
p10
S'1.000000'
p11
tp12
a(S'5.997701'
p13
S'191.996445'
p14
S'-0.003183'
p15
S'1.000000'
p16
tp17
a(S'24.996798'
p18
S'10.005333'
p19
S'1.002195'
p20
S'1.000000'
p21
tp22
a(S'30.004278'
p23
S'8.004202'
p24
S'1.000917'
p25
S'1.000000'
p26
tp27
a(S'8.999211'
p28
S'55.000271'
p29
S'-0.008819'
p30
S'3.000000'
p31
tp32
a(S'5.998720'
p33
S'33.998940'
p34
S'0.999768'
p35
S'3.000000'
p36
tp37
a(S'4.998889'
p38
S'33.999245'
p39
S'-0.000340'
p40
S'3.000000'
p41
tp42
a(S'11.997598'
p43
S'37.997299'
p44
S'-0.006323'
p45
S'3.000000'
p46
tp47
a(S'17.997877'
p48
S'45.994846'
p49
S'0.005245'
p50
S'3.000000'
p51
tp52
a(S'8.005999'
p53
S'67.977890'
p54
S'1.017406'
p55
S'3.000000'
p56
tp57
a(S'9.000000'
p58
S'5.000000'
p59
S'1.000000'
p60
S'4.000000'
p61
tp62
a(S'7.002994'
p63
S'28.009270'
p64
S'2.011722'
p65
S'4.000000'
p66
tp67
a(S'14.009891'
p68
S'7.999916'
p69
S'0.007138'
p70
S'4.000000'
p71
tp72
a(S'5.000000'
p73
S'36.000000'
p74
S'2.000000'
p75
S'4.000000'
p76
tp77
a(S'8.004709'
p78
S'18.003462'
p79
S'2.010234'
p80
S'4.000000'
p81
tp82
a(S'14.005737'
p83
S'7.998990'
p84
S'2.007648'
p85
S'4.000000'
p86
tp87
aasS'energy'
p88
F1761.0
sS'lOfOperand'
p89
(lp90
(lp91
S'1'
p92
aS'12'
p93
aS'11'
p94
aS'3'
p95
aS'4'
p96
aS'5'
p97
aS'\n'
p98
aasS'lOfRawValues'
p99
(lp100
(lp101
(F3.999736
S'195.002380'
p102
S'0.002787'
p103
S'1.000000'
p104
tp105
a(F5.997701
S'191.996445'
p106
S'-0.003182'
p107
S'1.000000'
p108
tp109
a(F24.996798
S'10.005332'
p110
S'1.002197'
p111
S'1.000000'
p112
tp113
a(F30.004278
S'8.004202'
p114
S'1.000918'
p115
S'1.000000'
p116
tp117
a(F8.999212
S'55.000271'
p118
S'-0.008816'
p119
S'3.000000'
p120
tp121
a(F5.99872
S'33.998940'
p122
S'0.999769'
p123
S'3.000000'
p124
tp125
a(F4.998889
S'33.999245'
p126
S'-0.000339'
p127
S'3.000000'
p128
tp129
a(F11.997599
S'37.997299'
p130
S'-0.006321'
p131
S'3.000000'
p132
tp133
a(F17.997879
S'45.994846'
p134
S'0.005246'
p135
S'3.000000'
p136
tp137
a(F8.006
S'67.977898'
p138
S'1.017403'
p139
S'3.000000'
p140
tp141
a(F9.0
S'5.000000'
p142
S'1.000000'
p143
S'4.000000'
p144
tp145
a(F7.002994
S'28.009266'
p146
S'2.011719'
p147
S'4.000000'
p148
tp149
a(F14.009886
S'7.999919'
p150
S'0.007136'
p151
S'4.000000'
p152
tp153
a(F5.0
S'36.000000'
p154
S'2.000000'
p155
S'4.000000'
p156
tp157
a(F8.004708
S'18.003460'
p158
S'2.010234'
p159
S'4.000000'
p160
tp161
aasS'quality_is_set'
p162
I01
sS'dealingWithPics'
p163
I00
sS'inputObj'
p164
(iinputs
inputClass
p165
(dp166
bsS'quality'
p167
cnumpy.core.multiarray
scalar
p168
(cnumpy
dtype
p169
(S'f8'
p170
I0
I1
tp171
Rp172
(I3
S'<'
p173
NNNI-1
I-1
I0
tp174
bS'\xe8\xf6+\xe8\x1fMF='
p175
tp176
Rp177
sS'setUp'
p178
(lp179
(lp180
S'btm'
p181
aI32
aI1
aa(lp182
S'bta'
p183
aI32
aI2
aI0
aI0
aa(lp184
g181
aI32
aI9
aa(lp185
g183
aI32
aI4
aI0
aI0
aa(lp186
S'bta'
p187
aI32
aI3
aI0
aI0
aasb.(ipoints_class
points
p0
(dp1
S'lOfError'
p2
(lp3
(lp4
F3.364000000013168e-09
aF6524.541995923425
aF415.06813284010104
aF8.019999997339294e-10
aF2.4650000000158662e-09
aF2.6440000001636064e-09
aF37.03722906500502
aF6.110499999939864e-08
aasS'lOfAccurateValues'
p5
(lp6
(lp7
(S'3.999736'
p8
S'195.002380'
p9
S'0.002787'
p10
S'1.000000'
p11
tp12
a(S'5.997701'
p13
S'191.996445'
p14
S'-0.003183'
p15
S'1.000000'
p16
tp17
a(S'24.996798'
p18
S'10.005333'
p19
S'1.002195'
p20
S'1.000000'
p21
tp22
a(S'30.004278'
p23
S'8.004202'
p24
S'1.000917'
p25
S'1.000000'
p26
tp27
a(S'8.999211'
p28
S'55.000271'
p29
S'-0.008819'
p30
S'3.000000'
p31
tp32
a(S'5.998720'
p33
S'33.998940'
p34
S'0.999768'
p35
S'3.000000'
p36
tp37
a(S'4.998889'
p38
S'33.999245'
p39
S'-0.000340'
p40
S'3.000000'
p41
tp42
a(S'11.997598'
p43
S'37.997299'
p44
S'-0.006323'
p45
S'3.000000'
p46
tp47
a(S'17.997877'
p48
S'45.994846'
p49
S'0.005245'
p50
S'3.000000'
p51
tp52
a(S'8.005999'
p53
S'67.977890'
p54
S'1.017406'
p55
S'3.000000'
p56
tp57
a(S'9.000000'
p58
S'5.000000'
p59
S'1.000000'
p60
S'4.000000'
p61
tp62
a(S'7.002994'
p63
S'28.009270'
p64
S'2.011722'
p65
S'4.000000'
p66
tp67
a(S'14.009891'
p68
S'7.999916'
p69
S'0.007138'
p70
S'4.000000'
p71
tp72
a(S'5.000000'
p73
S'36.000000'
p74
S'2.000000'
p75
S'4.000000'
p76
tp77
a(S'8.004709'
p78
S'18.003462'
p79
S'2.010234'
p80
S'4.000000'
p81
tp82
a(S'14.005737'
p83
S'7.998990'
p84
S'2.007648'
p85
S'4.000000'
p86
tp87
aasS'energy'
p88
F1342.0
sS'lOfOperand'
p89
(lp90
(lp91
S'1'
p92
aS'12'
p93
aS'11'
p94
aS'3'
p95
aS'4'
p96
aS'5'
p97
aS'\n'
p98
aasS'lOfRawValues'
p99
(lp100
(lp101
(F33.0
S'24.000000'
p102
S'2.000000'
p103
S'0.000000'
p104
tp105
a(F3.999794
S'195.002380'
p106
S'0.002811'
p107
S'1.000000'
p108
tp109
a(F34.0
S'11.000000'
p110
S'0.000000'
p111
S'1.000000'
p112
tp113
a(F27.0
S'114.000000'
p114
S'0.000000'
p115
S'1.000000'
p116
tp117
a(F16.0
S'8.000000'
p118
S'1.000000'
p119
S'2.000000'
p120
tp121
a(F21.0
S'41.000000'
p122
S'2.000000'
p123
S'2.000000'
p124
tp125
a(F5.991135
S'68.995544'
p126
S'-0.001137'
p127
S'3.000000'
p128
tp129
a(F8.999232
S'55.000252'
p130
S'-0.008580'
p131
S'3.000000'
p132
tp133
a(F5.998764
S'33.998917'
p134
S'0.999840'
p135
S'3.000000'
p136
tp137
a(F12.0
S'48.000000'
p138
S'1.000000'
p139
S'3.000000'
p140
tp141
a(F8.007843
S'68.985413'
p142
S'2.022583'
p143
S'3.000000'
p144
tp145
a(F4.998901
S'33.999195'
p146
S'-0.000298'
p147
S'3.000000'
p148
tp149
a(F13.0
S'44.000000'
p150
S'0.000000'
p151
S'3.000000'
p152
tp153
a(F17.998108
S'45.994934'
p154
S'0.005188'
p155
S'3.000000'
p156
tp157
aasS'quality_is_set'
p158
I01
sS'dealingWithPics'
p159
I00
sS'inputObj'
p160
(iinputs
inputClass
p161
(dp162
bsS'quality'
p163
cnumpy.core.multiarray
scalar
p164
(cnumpy
dtype
p165
(S'f8'
p166
I0
I1
tp167
Rp168
(I3
S'<'
p169
NNNI-1
I-1
I0
tp170
bS'\x12R_\xb7WR0@'
p171
tp172
Rp173
sS'setUp'
p174
(lp175
(lp176
S'btm'
p177
aI32
aI14
aa(lp178
S'bta'
p179
aI32
aI2
aI0
aI0
aa(lp180
g177
aI32
aI9
aa(lp181
g179
aI32
aI12
aI0
aI0
aa(lp182
S'bta'
p183
aI32
aI11
aI0
aI0
aasb.(ipoints_class
points
p0
(dp1
S'lOfError'
p2
(lp3
(lp4
F4.355999999986731e-09
aF6524.541995923425
aF415.06813284010104
aF7.609999997668765e-10
aF2.4650000000158662e-09
aF2.6440000001636064e-09
aF37.03722906500502
aF6.110499999939864e-08
aasS'lOfAccurateValues'
p5
(lp6
(lp7
(S'3.999736'
p8
S'195.002380'
p9
S'0.002787'
p10
S'1.000000'
p11
tp12
a(S'5.997701'
p13
S'191.996445'
p14
S'-0.003183'
p15
S'1.000000'
p16
tp17
a(S'24.996798'
p18
S'10.005333'
p19
S'1.002195'
p20
S'1.000000'
p21
tp22
a(S'30.004278'
p23
S'8.004202'
p24
S'1.000917'
p25
S'1.000000'
p26
tp27
a(S'8.999211'
p28
S'55.000271'
p29
S'-0.008819'
p30
S'3.000000'
p31
tp32
a(S'5.998720'
p33
S'33.998940'
p34
S'0.999768'
p35
S'3.000000'
p36
tp37
a(S'4.998889'
p38
S'33.999245'
p39
S'-0.000340'
p40
S'3.000000'
p41
tp42
a(S'11.997598'
p43
S'37.997299'
p44
S'-0.006323'
p45
S'3.000000'
p46
tp47
a(S'17.997877'
p48
S'45.994846'
p49
S'0.005245'
p50
S'3.000000'
p51
tp52
a(S'8.005999'
p53
S'67.977890'
p54
S'1.017406'
p55
S'3.000000'
p56
tp57
a(S'9.000000'
p58
S'5.000000'
p59
S'1.000000'
p60
S'4.000000'
p61
tp62
a(S'7.002994'
p63
S'28.009270'
p64
S'2.011722'
p65
S'4.000000'
p66
tp67
a(S'14.009891'
p68
S'7.999916'
p69
S'0.007138'
p70
S'4.000000'
p71
tp72
a(S'5.000000'
p73
S'36.000000'
p74
S'2.000000'
p75
S'4.000000'
p76
tp77
a(S'8.004709'
p78
S'18.003462'
p79
S'2.010234'
p80
S'4.000000'
p81
tp82
a(S'14.005737'
p83
S'7.998990'
p84
S'2.007648'
p85
S'4.000000'
p86
tp87
aasS'energy'
p88
F1341.0
sS'lOfOperand'
p89
(lp90
(lp91
S'1'
p92
aS'12'
p93
aS'11'
p94
aS'3'
p95
aS'4'
p96
aS'5'
p97
aS'\n'
p98
aasS'lOfRawValues'
p99
(lp100
(lp101
(F33.0
S'24.000000'
p102
S'2.000000'
p103
S'0.000000'
p104
tp105
a(F3.999802
S'195.002380'
p106
S'0.002815'
p107
S'1.000000'
p108
tp109
a(F34.0
S'11.000000'
p110
S'0.000000'
p111
S'1.000000'
p112
tp113
a(F27.0
S'114.000000'
p114
S'0.000000'
p115
S'1.000000'
p116
tp117
a(F16.0
S'8.000000'
p118
S'1.000000'
p119
S'2.000000'
p120
tp121
a(F21.0
S'41.000000'
p122
S'2.000000'
p123
S'2.000000'
p124
tp125
a(F5.991119
S'68.995544'
p126
S'-0.001144'
p127
S'3.000000'
p128
tp129
a(F8.999231
S'55.000252'
p130
S'-0.008580'
p131
S'3.000000'
p132
tp133
a(F5.998764
S'33.998917'
p134
S'0.999840'
p135
S'3.000000'
p136
tp137
a(F12.0
S'48.000000'
p138
S'1.000000'
p139
S'3.000000'
p140
tp141
a(F8.007812
S'68.985413'
p142
S'2.022583'
p143
S'3.000000'
p144
tp145
a(F4.998901
S'33.999195'
p146
S'-0.000298'
p147
S'3.000000'
p148
tp149
a(F13.0
S'44.000000'
p150
S'0.000000'
p151
S'3.000000'
p152
tp153
a(F17.998108
S'45.994934'
p154
S'0.005188'
p155
S'3.000000'
p156
tp157
aasS'quality_is_set'
p158
I01
sS'dealingWithPics'
p159
I00
sS'inputObj'
p160
(iinputs
inputClass
p161
(dp162
bsS'quality'
p163
cnumpy.core.multiarray
scalar
p164
(cnumpy
dtype
p165
(S'f8'
p166
I0
I1
tp167
Rp168
(I3
S'<'
p169
NNNI-1
I-1
I0
tp170
bS'\x84T_\xb7WR0@'
p171
tp172
Rp173
sS'setUp'
p174
(lp175
(lp176
S'btm'
p177
aI32
aI14
aa(lp178
S'bta'
p179
aI32
aI2
aI0
aI0
aa(lp180
g177
aI32
aI9
aa(lp181
g179
aI32
aI12
aI0
aI0
aa(lp182
S'bta'
p183
aI32
aI12
aI0
aI0
aasb.(ipoints_class
points
p0
(dp1
S'lOfError'
p2
(lp3
(lp4
F0.0
aF1.000000000279556e-12
aF6.399999990420474e-11
aF0.0
aF1.700000000475245e-11
aF0.0
aF4.4999999985934666e-11
aF2.4999999998107114e-11
aF9.99999998503199e-13
aF9.99999998503199e-13
aF1.000000000279556e-12
aF4.000000001118224e-12
aF7.999999999394277e-11
aF1.0000000020559128e-12
aF0.0
aasS'lOfAccurateValues'
p5
(lp6
(lp7
(S'3.999736'
p8
S'195.002380'
p9
S'0.002787'
p10
S'1.000000'
p11
tp12
a(S'5.997701'
p13
S'191.996445'
p14
S'-0.003183'
p15
S'1.000000'
p16
tp17
a(S'24.996798'
p18
S'10.005333'
p19
S'1.002195'
p20
S'1.000000'
p21
tp22
a(S'30.004278'
p23
S'8.004202'
p24
S'1.000917'
p25
S'1.000000'
p26
tp27
a(S'8.999211'
p28
S'55.000271'
p29
S'-0.008819'
p30
S'3.000000'
p31
tp32
a(S'5.998720'
p33
S'33.998940'
p34
S'0.999768'
p35
S'3.000000'
p36
tp37
a(S'4.998889'
p38
S'33.999245'
p39
S'-0.000340'
p40
S'3.000000'
p41
tp42
a(S'11.997598'
p43
S'37.997299'
p44
S'-0.006323'
p45
S'3.000000'
p46
tp47
a(S'17.997877'
p48
S'45.994846'
p49
S'0.005245'
p50
S'3.000000'
p51
tp52
a(S'8.005999'
p53
S'67.977890'
p54
S'1.017406'
p55
S'3.000000'
p56
tp57
a(S'9.000000'
p58
S'5.000000'
p59
S'1.000000'
p60
S'4.000000'
p61
tp62
a(S'7.002994'
p63
S'28.009270'
p64
S'2.011722'
p65
S'4.000000'
p66
tp67
a(S'14.009891'
p68
S'7.999916'
p69
S'0.007138'
p70
S'4.000000'
p71
tp72
a(S'5.000000'
p73
S'36.000000'
p74
S'2.000000'
p75
S'4.000000'
p76
tp77
a(S'8.004709'
p78
S'18.003462'
p79
S'2.010234'
p80
S'4.000000'
p81
tp82
a(S'14.005737'
p83
S'7.998990'
p84
S'2.007648'
p85
S'4.000000'
p86
tp87
aasS'energy'
p88
F1726.0
sS'lOfOperand'
p89
(lp90
(lp91
S'1'
p92
aS'12'
p93
aS'11'
p94
aS'3'
p95
aS'4'
p96
aS'5'
p97
aS'\n'
p98
aasS'lOfRawValues'
p99
(lp100
(lp101
(F3.999736
S'195.002380'
p102
S'0.002788'
p103
S'1.000000'
p104
tp105
a(F5.997702
S'191.996445'
p106
S'-0.003181'
p107
S'1.000000'
p108
tp109
a(F24.996798
S'10.005332'
p110
S'1.002198'
p111
S'1.000000'
p112
tp113
a(F30.004278
S'8.004202'
p114
S'1.000917'
p115
S'1.000000'
p116
tp117
a(F8.999212
S'55.000271'
p118
S'-0.008813'
p119
S'3.000000'
p120
tp121
a(F5.998719
S'33.998940'
p122
S'0.999769'
p123
S'3.000000'
p124
tp125
a(F4.99889
S'33.999245'
p126
S'-0.000339'
p127
S'3.000000'
p128
tp129
a(F11.9976
S'37.997299'
p130
S'-0.006319'
p131
S'3.000000'
p132
tp133
a(F17.997885
S'45.994850'
p134
S'0.005238'
p135
S'3.000000'
p136
tp137
a(F8.005999
S'67.977898'
p138
S'1.017401'
p139
S'3.000000'
p140
tp141
a(F9.0
S'5.000000'
p142
S'1.000000'
p143
S'4.000000'
p144
tp145
a(F7.002993
S'28.009266'
p146
S'2.011717'
p147
S'4.000000'
p148
tp149
a(F14.009886
S'7.999916'
p150
S'0.007135'
p151
S'4.000000'
p152
tp153
a(F5.0
S'36.000000'
p154
S'2.000000'
p155
S'4.000000'
p156
tp157
a(F8.004706
S'18.003456'
p158
S'2.010231'
p159
S'4.000000'
p160
tp161
aasS'quality_is_set'
p162
I01
sS'dealingWithPics'
p163
I00
sS'inputObj'
p164
(iinputs
inputClass
p165
(dp166
bsS'quality'
p167
cnumpy.core.multiarray
scalar
p168
(cnumpy
dtype
p169
(S'f8'
p170
I0
I1
tp171
Rp172
(I3
S'<'
p173
NNNI-1
I-1
I0
tp174
bS'\xad\xbb\\\xcfr\x12U='
p175
tp176
Rp177
sS'setUp'
p178
(lp179
(lp180
S'btm'
p181
aI32
aI1
aa(lp182
S'bta'
p183
aI32
aI2
aI0
aI0
aa(lp184
g181
aI32
aI10
aa(lp185
g183
aI32
aI4
aI0
aI0
aa(lp186
S'bta'
p187
aI32
aI7
aI0
aI0
aasb.(ipoints_class
points
p0
(dp1
S'lOfError'
p2
(lp3
(lp4
F1.000000000279556e-12
aF1.000000000279556e-12
aF3.9400000016698847e-10
aF0.0
aF5.380000001095449e-10
aF0.0
aF8.500000001488047e-11
aF7.300000000086765e-11
aF1.6999999974554386e-11
aF1.999999997716941e-11
aF1.700000003317416e-11
aF4.000000001118224e-12
aF1.7799999997515398e-10
aF6.799999998348267e-11
aF1.1699999999540456e-10
aasS'lOfAccurateValues'
p5
(lp6
(lp7
(S'3.999736'
p8
S'195.002380'
p9
S'0.002787'
p10
S'1.000000'
p11
tp12
a(S'5.997701'
p13
S'191.996445'
p14
S'-0.003183'
p15
S'1.000000'
p16
tp17
a(S'24.996798'
p18
S'10.005333'
p19
S'1.002195'
p20
S'1.000000'
p21
tp22
a(S'30.004278'
p23
S'8.004202'
p24
S'1.000917'
p25
S'1.000000'
p26
tp27
a(S'8.999211'
p28
S'55.000271'
p29
S'-0.008819'
p30
S'3.000000'
p31
tp32
a(S'5.998720'
p33
S'33.998940'
p34
S'0.999768'
p35
S'3.000000'
p36
tp37
a(S'4.998889'
p38
S'33.999245'
p39
S'-0.000340'
p40
S'3.000000'
p41
tp42
a(S'11.997598'
p43
S'37.997299'
p44
S'-0.006323'
p45
S'3.000000'
p46
tp47
a(S'17.997877'
p48
S'45.994846'
p49
S'0.005245'
p50
S'3.000000'
p51
tp52
a(S'8.005999'
p53
S'67.977890'
p54
S'1.017406'
p55
S'3.000000'
p56
tp57
a(S'9.000000'
p58
S'5.000000'
p59
S'1.000000'
p60
S'4.000000'
p61
tp62
a(S'7.002994'
p63
S'28.009270'
p64
S'2.011722'
p65
S'4.000000'
p66
tp67
a(S'14.009891'
p68
S'7.999916'
p69
S'0.007138'
p70
S'4.000000'
p71
tp72
a(S'5.000000'
p73
S'36.000000'
p74
S'2.000000'
p75
S'4.000000'
p76
tp77
a(S'8.004709'
p78
S'18.003462'
p79
S'2.010234'
p80
S'4.000000'
p81
tp82
a(S'14.005737'
p83
S'7.998990'
p84
S'2.007648'
p85
S'4.000000'
p86
tp87
aasS'energy'
p88
F1722.0
sS'lOfOperand'
p89
(lp90
(lp91
S'1'
p92
aS'12'
p93
aS'11'
p94
aS'3'
p95
aS'4'
p96
aS'5'
p97
aS'\n'
p98
aasS'lOfRawValues'
p99
(lp100
(lp101
(F3.999737
S'195.002380'
p102
S'0.002789'
p103
S'1.000000'
p104
tp105
a(F5.997702
S'191.996445'
p106
S'-0.003181'
p107
S'1.000000'
p108
tp109
a(F24.996796
S'10.005341'
p110
S'1.002197'
p111
S'1.000000'
p112
tp113
a(F30.004272
S'8.004211'
p114
S'1.000931'
p115
S'1.000000'
p116
tp117
a(F8.999212
S'55.000267'
p118
S'-0.008810'
p119
S'3.000000'
p120
tp121
a(F5.998722
S'33.998936'
p122
S'0.999771'
p123
S'3.000000'
p124
tp125
a(F4.99889
S'33.999241'
p126
S'-0.000340'
p127
S'3.000000'
p128
tp129
a(F11.9976
S'37.997299'
p130
S'-0.006317'
p131
S'3.000000'
p132
tp133
a(F17.997864
S'45.994843'
p134
S'0.005219'
p135
S'3.000000'
p136
tp137
a(F8.006012
S'67.977905'
p138
S'1.017395'
p139
S'3.000000'
p140
tp141
a(F9.0
S'5.000000'
p142
S'1.000000'
p143
S'4.000000'
p144
tp145
a(F7.002991
S'28.009247'
p146
S'2.011719'
p147
S'4.000000'
p148
tp149
a(F14.009888
S'7.999908'
p150
S'0.007141'
p151
S'4.000000'
p152
tp153
a(F5.0
S'36.000000'
p154
S'2.000000'
p155
S'4.000000'
p156
tp157
a(F8.0047
S'18.003464'
p158
S'2.010239'
p159
S'4.000000'
p160
tp161
aasS'quality_is_set'
p162
I01
sS'dealingWithPics'
p163
I00
sS'inputObj'
p164
(iinputs
inputClass
p165
(dp166
bsS'quality'
p167
cnumpy.core.multiarray
scalar
p168
(cnumpy
dtype
p169
(S'f8'
p170
I0
I1
tp171
Rp172
(I3
S'<'
p173
NNNI-1
I-1
I0
tp174
bS'>n\xc7\x12\xf0\x9a\x80='
p175
tp176
Rp177
sS'setUp'
p178
(lp179
(lp180
S'btm'
p181
aI32
aI1
aa(lp182
S'bta'
p183
aI32
aI2
aI0
aI0
aa(lp184
g181
aI32
aI10
aa(lp185
g183
aI32
aI4
aI0
aI0
aa(lp186
S'bta'
p187
aI32
aI11
aI0
aI0
aasb.(ipoints_class
points
p0
(dp1
S'lOfError'
p2
(lp3
(lp4
F0.0
aF1.000000000279556e-12
aF6.799999990532296e-11
aF0.0
aF2.5000000006988898e-11
aF0.0
aF5.199999999322062e-11
aF4.9000000001263743e-11
aF1.6999999974554386e-11
aF9.99999998503199e-13
aF1.000000000279556e-12
aF4.000000001118224e-12
aF3.60000000313803e-11
aF2.0000000041118255e-12
aF0.0
aasS'lOfAccurateValues'
p5
(lp6
(lp7
(S'3.999736'
p8
S'195.002380'
p9
S'0.002787'
p10
S'1.000000'
p11
tp12
a(S'5.997701'
p13
S'191.996445'
p14
S'-0.003183'
p15
S'1.000000'
p16
tp17
a(S'24.996798'
p18
S'10.005333'
p19
S'1.002195'
p20
S'1.000000'
p21
tp22
a(S'30.004278'
p23
S'8.004202'
p24
S'1.000917'
p25
S'1.000000'
p26
tp27
a(S'8.999211'
p28
S'55.000271'
p29
S'-0.008819'
p30
S'3.000000'
p31
tp32
a(S'5.998720'
p33
S'33.998940'
p34
S'0.999768'
p35
S'3.000000'
p36
tp37
a(S'4.998889'
p38
S'33.999245'
p39
S'-0.000340'
p40
S'3.000000'
p41
tp42
a(S'11.997598'
p43
S'37.997299'
p44
S'-0.006323'
p45
S'3.000000'
p46
tp47
a(S'17.997877'
p48
S'45.994846'
p49
S'0.005245'
p50
S'3.000000'
p51
tp52
a(S'8.005999'
p53
S'67.977890'
p54
S'1.017406'
p55
S'3.000000'
p56
tp57
a(S'9.000000'
p58
S'5.000000'
p59
S'1.000000'
p60
S'4.000000'
p61
tp62
a(S'7.002994'
p63
S'28.009270'
p64
S'2.011722'
p65
S'4.000000'
p66
tp67
a(S'14.009891'
p68
S'7.999916'
p69
S'0.007138'
p70
S'4.000000'
p71
tp72
a(S'5.000000'
p73
S'36.000000'
p74
S'2.000000'
p75
S'4.000000'
p76
tp77
a(S'8.004709'
p78
S'18.003462'
p79
S'2.010234'
p80
S'4.000000'
p81
tp82
a(S'14.005737'
p83
S'7.998990'
p84
S'2.007648'
p85
S'4.000000'
p86
tp87
aasS'energy'
p88
F1725.0
sS'lOfOperand'
p89
(lp90
(lp91
S'1'
p92
aS'12'
p93
aS'11'
p94
aS'3'
p95
aS'4'
p96
aS'5'
p97
aS'\n'
p98
aasS'lOfRawValues'
p99
(lp100
(lp101
(F3.999736
S'195.002380'
p102
S'0.002788'
p103
S'1.000000'
p104
tp105
a(F5.997702
S'191.996445'
p106
S'-0.003181'
p107
S'1.000000'
p108
tp109
a(F24.996799
S'10.005332'
p110
S'1.002198'
p111
S'1.000000'
p112
tp113
a(F30.004278
S'8.004202'
p114
S'1.000917'
p115
S'1.000000'
p116
tp117
a(F8.999212
S'55.000267'
p118
S'-0.008812'
p119
S'3.000000'
p120
tp121
a(F5.998719
S'33.998940'
p122
S'0.999769'
p123
S'3.000000'
p124
tp125
a(F4.99889
S'33.999245'
p126
S'-0.000339'
p127
S'3.000000'
p128
tp129
a(F11.9976
S'37.997299'
p130
S'-0.006318'
p131
S'3.000000'
p132
tp133
a(F17.997883
S'45.994846'
p134
S'0.005238'
p135
S'3.000000'
p136
tp137
a(F8.006001
S'67.977898'
p138
S'1.017403'
p139
S'3.000000'
p140
tp141
a(F9.0
S'5.000000'
p142
S'1.000000'
p143
S'4.000000'
p144
tp145
a(F7.002991
S'28.009266'
p146
S'2.011719'
p147
S'4.000000'
p148
tp149
a(F14.009884
S'7.999916'
p150
S'0.007137'
p151
S'4.000000'
p152
tp153
a(F5.0
S'36.000000'
p154
S'2.000000'
p155
S'4.000000'
p156
tp157
a(F8.004705
S'18.003456'
p158
S'2.010231'
p159
S'4.000000'
p160
tp161
aasS'quality_is_set'
p162
I01
sS'dealingWithPics'
p163
I00
sS'inputObj'
p164
(iinputs
inputClass
p165
(dp166
bsS'quality'
p167
cnumpy.core.multiarray
scalar
p168
(cnumpy
dtype
p169
(S'f8'
p170
I0
I1
tp171
Rp172
(I3
S'<'
p173
NNNI-1
I-1
I0
tp174
bS'\xc7\xcdp\x10\x14zV='
p175
tp176
Rp177
sS'setUp'
p178
(lp179
(lp180
S'btm'
p181
aI32
aI1
aa(lp182
S'bta'
p183
aI32
aI2
aI0
aI0
aa(lp184
g181
aI32
aI10
aa(lp185
g183
aI32
aI4
aI0
aI0
aa(lp186
S'bta'
p187
aI32
aI8
aI0
aI0
aasb.(ipoints_class
points
p0
(dp1
S'lOfError'
p2
(lp3
(lp4
F2.5000000002548005e-11
aF1.000000000279556e-12
aF2.074000000277818e-09
aF0.0
aF5.8000000003779744e-11
aF0.0
aF3.699999999968543e-10
aF5.380000000225035e-10
aF1.6999999974554386e-11
aF6.799999990177026e-11
aF4.100000003100172e-11
aF1.7000000031397804e-11
aF6.799999998348267e-11
aF1.809999999990853e-10
aasS'lOfAccurateValues'
p5
(lp6
(lp7
(S'3.999736'
p8
S'195.002380'
p9
S'0.002787'
p10
S'1.000000'
p11
tp12
a(S'5.997701'
p13
S'191.996445'
p14
S'-0.003183'
p15
S'1.000000'
p16
tp17
a(S'24.996798'
p18
S'10.005333'
p19
S'1.002195'
p20
S'1.000000'
p21
tp22
a(S'30.004278'
p23
S'8.004202'
p24
S'1.000917'
p25
S'1.000000'
p26
tp27
a(S'8.999211'
p28
S'55.000271'
p29
S'-0.008819'
p30
S'3.000000'
p31
tp32
a(S'5.998720'
p33
S'33.998940'
p34
S'0.999768'
p35
S'3.000000'
p36
tp37
a(S'4.998889'
p38
S'33.999245'
p39
S'-0.000340'
p40
S'3.000000'
p41
tp42
a(S'11.997598'
p43
S'37.997299'
p44
S'-0.006323'
p45
S'3.000000'
p46
tp47
a(S'17.997877'
p48
S'45.994846'
p49
S'0.005245'
p50
S'3.000000'
p51
tp52
a(S'8.005999'
p53
S'67.977890'
p54
S'1.017406'
p55
S'3.000000'
p56
tp57
a(S'9.000000'
p58
S'5.000000'
p59
S'1.000000'
p60
S'4.000000'
p61
tp62
a(S'7.002994'
p63
S'28.009270'
p64
S'2.011722'
p65
S'4.000000'
p66
tp67
a(S'14.009891'
p68
S'7.999916'
p69
S'0.007138'
p70
S'4.000000'
p71
tp72
a(S'5.000000'
p73
S'36.000000'
p74
S'2.000000'
p75
S'4.000000'
p76
tp77
a(S'8.004709'
p78
S'18.003462'
p79
S'2.010234'
p80
S'4.000000'
p81
tp82
a(S'14.005737'
p83
S'7.998990'
p84
S'2.007648'
p85
S'4.000000'
p86
tp87
aasS'energy'
p88
F1721.0
sS'lOfOperand'
p89
(lp90
(lp91
S'1'
p92
aS'12'
p93
aS'11'
p94
aS'3'
p95
aS'4'
p96
aS'5'
p97
aS'\n'
p98
aasS'lOfRawValues'
p99
(lp100
(lp101
(F3.999741
S'195.002380'
p102
S'0.002792'
p103
S'1.000000'
p104
tp105
a(F5.9977
S'191.996445'
p106
S'-0.003181'
p107
S'1.000000'
p108
tp109
a(F24.996796
S'10.005341'
p110
S'1.002197'
p111
S'1.000000'
p112
tp113
a(F30.004288
S'8.004211'
p114
S'1.000931'
p115
S'1.000000'
p116
tp117
a(F8.999212
S'55.000267'
p118
S'-0.008810'
p119
S'3.000000'
p120
tp121
a(F5.998718
S'33.998932'
p122
S'0.999771'
p123
S'3.000000'
p124
tp125
a(F4.998894
S'33.999241'
p126
S'-0.000336'
p127
S'3.000000'
p128
tp129
a(F11.997599
S'37.997303'
p130
S'-0.006315'
p131
S'3.000000'
p132
tp133
a(F8.006042
S'67.977905'
p134
S'1.017395'
p135
S'3.000000'
p136
tp137
a(F9.0
S'5.000000'
p138
S'1.000000'
p139
S'4.000000'
p140
tp141
a(F7.002991
S'28.009277'
p142
S'2.011719'
p143
S'4.000000'
p144
tp145
a(F14.009888
S'7.999939'
p146
S'0.007141'
p147
S'4.000000'
p148
tp149
a(F5.0
S'36.000000'
p150
S'2.000000'
p151
S'4.000000'
p152
tp153
a(F8.0047
S'18.003479'
p154
S'2.010254'
p155
S'4.000000'
p156
tp157
aasS'quality_is_set'
p158
I01
sS'dealingWithPics'
p159
I00
sS'inputObj'
p160
(iinputs
inputClass
p161
(dp162
bsS'quality'
p163
cnumpy.core.multiarray
scalar
p164
(cnumpy
dtype
p165
(S'f8'
p166
I0
I1
tp167
Rp168
(I3
S'<'
p169
NNNI-1
I-1
I0
tp170
bS'\xd8\x05A\xc6\xccT\x94='
p171
tp172
Rp173
sS'setUp'
p174
(lp175
(lp176
S'btm'
p177
aI32
aI1
aa(lp178
S'bta'
p179
aI32
aI2
aI0
aI0
aa(lp180
g177
aI32
aI10
aa(lp181
g179
aI32
aI4
aI0
aI0
aa(lp182
S'bta'
p183
aI32
aI12
aI0
aI0
aasb.(ipoints_class
points
p0
(dp1
S'lOfError'
p2
(lp3
(lp4
F0.0
aF1.000000000279556e-12
aF6.399999990420474e-11
aF0.0
aF5.000000008503207e-12
aF0.0
aF5.199999999322062e-11
aF2.599999999838667e-11
aF9.99999998503199e-13
aF9.99999998503199e-13
aF1.000000000279556e-12
aF4.000000001118224e-12
aF3.60000000313803e-11
aF1.0000000020559128e-12
aF0.0
aasS'lOfAccurateValues'
p5
(lp6
(lp7
(S'3.999736'
p8
S'195.002380'
p9
S'0.002787'
p10
S'1.000000'
p11
tp12
a(S'5.997701'
p13
S'191.996445'
p14
S'-0.003183'
p15
S'1.000000'
p16
tp17
a(S'24.996798'
p18
S'10.005333'
p19
S'1.002195'
p20
S'1.000000'
p21
tp22
a(S'30.004278'
p23
S'8.004202'
p24
S'1.000917'
p25
S'1.000000'
p26
tp27
a(S'8.999211'
p28
S'55.000271'
p29
S'-0.008819'
p30
S'3.000000'
p31
tp32
a(S'5.998720'
p33
S'33.998940'
p34
S'0.999768'
p35
S'3.000000'
p36
tp37
a(S'4.998889'
p38
S'33.999245'
p39
S'-0.000340'
p40
S'3.000000'
p41
tp42
a(S'11.997598'
p43
S'37.997299'
p44
S'-0.006323'
p45
S'3.000000'
p46
tp47
a(S'17.997877'
p48
S'45.994846'
p49
S'0.005245'
p50
S'3.000000'
p51
tp52
a(S'8.005999'
p53
S'67.977890'
p54
S'1.017406'
p55
S'3.000000'
p56
tp57
a(S'9.000000'
p58
S'5.000000'
p59
S'1.000000'
p60
S'4.000000'
p61
tp62
a(S'7.002994'
p63
S'28.009270'
p64
S'2.011722'
p65
S'4.000000'
p66
tp67
a(S'14.009891'
p68
S'7.999916'
p69
S'0.007138'
p70
S'4.000000'
p71
tp72
a(S'5.000000'
p73
S'36.000000'
p74
S'2.000000'
p75
S'4.000000'
p76
tp77
a(S'8.004709'
p78
S'18.003462'
p79
S'2.010234'
p80
S'4.000000'
p81
tp82
a(S'14.005737'
p83
S'7.998990'
p84
S'2.007648'
p85
S'4.000000'
p86
tp87
aasS'energy'
p88
F1730.0
sS'lOfOperand'
p89
(lp90
(lp91
S'1'
p92
aS'12'
p93
aS'11'
p94
aS'3'
p95
aS'4'
p96
aS'5'
p97
aS'\n'
p98
aasS'lOfRawValues'
p99
(lp100
(lp101
(F3.999736
S'195.002380'
p102
S'0.002788'
p103
S'1.000000'
p104
tp105
a(F5.997702
S'191.996445'
p106
S'-0.003182'
p107
S'1.000000'
p108
tp109
a(F24.996798
S'10.005332'
p110
S'1.002198'
p111
S'1.000000'
p112
tp113
a(F30.004278
S'8.004202'
p114
S'1.000916'
p115
S'1.000000'
p116
tp117
a(F8.999212
S'55.000271'
p118
S'-0.008813'
p119
S'3.000000'
p120
tp121
a(F5.998719
S'33.998940'
p122
S'0.999769'
p123
S'3.000000'
p124
tp125
a(F4.99889
S'33.999245'
p126
S'-0.000339'
p127
S'3.000000'
p128
tp129
a(F11.9976
S'37.997299'
p130
S'-0.006319'
p131
S'3.000000'
p132
tp133
a(F17.997883
S'45.994846'
p134
S'0.005237'
p135
S'3.000000'
p136
tp137
a(F8.005999
S'67.977898'
p138
S'1.017401'
p139
S'3.000000'
p140
tp141
a(F9.0
S'5.000000'
p142
S'1.000000'
p143
S'4.000000'
p144
tp145
a(F7.002993
S'28.009268'
p146
S'2.011716'
p147
S'4.000000'
p148
tp149
a(F14.009886
S'7.999915'
p150
S'0.007136'
p151
S'4.000000'
p152
tp153
a(F5.0
S'36.000000'
p154
S'2.000000'
p155
S'4.000000'
p156
tp157
a(F8.004705
S'18.003456'
p158
S'2.010230'
p159
S'4.000000'
p160
tp161
aasS'quality_is_set'
p162
I01
sS'dealingWithPics'
p163
I00
sS'inputObj'
p164
(iinputs
inputClass
p165
(dp166
bsS'quality'
p167
cnumpy.core.multiarray
scalar
p168
(cnumpy
dtype
p169
(S'f8'
p170
I0
I1
tp171
Rp172
(I3
S'<'
p173
NNNI-1
I-1
I0
tp174
bS'\xb7\x19T\x0c\x8f\xdbP='
p175
tp176
Rp177
sS'setUp'
p178
(lp179
(lp180
S'btm'
p181
aI32
aI1
aa(lp182
S'bta'
p183
aI32
aI2
aI0
aI0
aa(lp184
g181
aI32
aI10
aa(lp185
g183
aI32
aI4
aI0
aI0
aa(lp186
S'bta'
p187
aI32
aI3
aI0
aI0
aasb.