(ipoint_set_class
point_set
p0
(dp1
S'lOfRawPoints'
p2
(lp3
(ipoints_class
points
p4
(dp5
S'lOfError'
p6
(lp7
sS'lOfAccurateValues'
p8
(lp9
sS'energy'
p10
F2080.0
sS'lOfOperand'
p11
(lp12
sS'lOfRawValues'
p13
(lp14
sS'setUpNumber'
p15
I0
sS'quality_is_set'
p16
I01
sS'dealingWithPics'
p17
I00
sS'quality'
p18
cnumpy.core.multiarray
scalar
p19
(cnumpy
dtype
p20
(S'f8'
p21
I0
I1
tp22
Rp23
(I3
S'<'
p24
NNNI-1
I-1
I0
tp25
bS'\x00\x00\x00\x00\x00\x00\x00\x00'
p26
tp27
Rp28
sS'setUp'
p29
(lp30
(lp31
S'btm'
p32
aI32
aI0
aa(lp33
S'bta'
p34
aI32
aI0
aI0
aI0
aag31
ag33
ag33
asba(ipoints_class
points
p35
(dp36
g6
(lp37
sg8
(lp38
sg10
F1764.0
sg11
(lp39
sg13
(lp40
sg15
I0
sg16
I01
sg17
I00
sg18
g19
(g23
S'\xe8\xf6+\xe8\x1fMF='
p41
tp42
Rp43
sg29
(lp44
(lp45
g32
aI32
aI1
aa(lp46
g34
aI32
aI2
aI0
aI0
aa(lp47
g32
aI32
aI9
aa(lp48
g34
aI32
aI4
aI0
aI0
aa(lp49
g34
aI32
aI0
aI0
aI0
aasba(ipoints_class
points
p50
(dp51
g6
(lp52
sg8
(lp53
sg10
F1353.0
sg11
(lp54
sg13
(lp55
sg15
I0
sg16
I01
sg17
I00
sg18
g19
(g23
S'\x12R_\xb7WR0@'
p56
tp57
Rp58
sg29
(lp59
(lp60
g32
aI32
aI14
aa(lp61
g34
aI32
aI2
aI0
aI0
aa(lp62
g32
aI32
aI9
aa(lp63
g34
aI32
aI12
aI0
aI0
aa(lp64
g34
aI32
aI0
aI0
aI0
aasba(ipoints_class
points
p65
(dp66
g6
(lp67
sg8
(lp68
sg10
F1733.0
sg11
(lp69
sg13
(lp70
sg15
I0
sg16
I01
sg17
I00
sg18
g19
(g23
S'\xb7\x19T\x0c\x8f\xdbP='
p71
tp72
Rp73
sg29
(lp74
(lp75
g32
aI32
aI1
aa(lp76
g34
aI32
aI2
aI0
aI0
aa(lp77
g32
aI32
aI10
aa(lp78
g34
aI32
aI4
aI0
aI0
aa(lp79
g34
aI32
aI0
aI0
aI0
aasbasS'maxY'
p80
I00
sS'maxX'
p81
I00
sS'delimeter_2_tuple'
p82
(lp83
I0
aI4
asS'set_type'
p84
S'pareto'
p85
sb.(ipoint_set_class
point_set
p0
(dp1
S'lOfRawPoints'
p2
(lp3
(ipoints_class
points
p4
(dp5
S'lOfError'
p6
(lp7
sS'lOfAccurateValues'
p8
(lp9
sS'energy'
p10
F2080.0
sS'lOfOperand'
p11
(lp12
sS'lOfRawValues'
p13
(lp14
sS'setUpNumber'
p15
I0
sS'quality_is_set'
p16
I01
sS'dealingWithPics'
p17
I00
sS'quality'
p18
cnumpy.core.multiarray
scalar
p19
(cnumpy
dtype
p20
(S'f8'
p21
I0
I1
tp22
Rp23
(I3
S'<'
p24
NNNI-1
I-1
I0
tp25
bS'\x00\x00\x00\x00\x00\x00\x00\x00'
p26
tp27
Rp28
sS'setUp'
p29
(lp30
(lp31
S'btm'
p32
aI32
aI0
aa(lp33
S'bta'
p34
aI32
aI0
aI0
aI0
aag31
ag33
ag33
asba(ipoints_class
points
p35
(dp36
g6
(lp37
sg8
(lp38
sg10
F2073.0
sg11
(lp39
sg13
(lp40
sg15
I0
sg16
I01
sg17
I00
sg18
g19
(g23
S'\x8eW\x80)\xc1\xb4\x17='
p41
tp42
Rp43
sg29
(lp44
(lp45
g32
aI32
aI0
aa(lp46
g34
aI32
aI0
aI0
aI0
aa(lp47
g32
aI32
aI0
aa(lp48
g34
aI32
aI0
aI0
aI0
aa(lp49
g34
aI32
aI7
aI0
aI0
aasba(ipoints_class
points
p50
(dp51
g6
(lp52
sg8
(lp53
sg10
F2069.0
sg11
(lp54
sg13
(lp55
sg15
I0
sg16
I01
sg17
I00
sg18
g19
(g23
S'X}\xe78\x8a\x99~='
p56
tp57
Rp58
sg29
(lp59
(lp60
g32
aI32
aI0
aa(lp61
g34
aI32
aI0
aI0
aI0
aag60
a(lp62
g34
aI32
aI0
aI0
aI0
aa(lp63
g34
aI32
aI11
aI0
aI0
aasba(ipoints_class
points
p64
(dp65
g6
(lp66
sg8
(lp67
sg10
F2072.0
sg11
(lp68
sg13
(lp69
sg15
I0
sg16
I01
sg17
I00
sg18
g19
(g23
S'\xa0H\xc2s\xf1\xa1-='
p70
tp71
Rp72
sg29
(lp73
(lp74
g32
aI32
aI0
aa(lp75
g34
aI32
aI0
aI0
aI0
aag74
ag75
a(lp76
g34
aI32
aI8
aI0
aI0
aasba(ipoints_class
points
p77
(dp78
g6
(lp79
sg8
(lp80
sg10
F2068.0
sg11
(lp81
sg13
(lp82
sg15
I0
sg16
I01
sg17
I00
sg18
g19
(g23
S'\xbeG\xc4{T\xac\x94='
p83
tp84
Rp85
sg29
(lp86
(lp87
g32
aI32
aI0
aa(lp88
g34
aI32
aI0
aI0
aI0
aag87
ag88
a(lp89
g34
aI32
aI12
aI0
aI0
aasba(ipoints_class
points
p90
(dp91
g6
(lp92
sg8
(lp93
sg10
F2077.0
sg11
(lp94
sg13
(lp95
sg15
I0
sg16
I01
sg17
I00
sg18
g19
(g23
S'F\x9f\xff\xcer\x12\xf5<'
p96
tp97
Rp98
sg29
(lp99
(lp100
g32
aI32
aI0
aa(lp101
g34
aI32
aI0
aI0
aI0
aa(lp102
g32
aI32
aI0
aa(lp103
g34
aI32
aI0
aI0
aI0
aa(lp104
g34
aI32
aI3
aI0
aI0
aasbasS'maxY'
p105
I00
sS'maxX'
p106
I00
sS'delimeter_2_tuple'
p107
(lp108
I4
aI5
asS'set_type'
p109
S'pareto'
p110
sb.