(ipoints_class
points
p0
(dp1
S'lOfError'
p2
(lp3
sS'lOfAccurateValues'
p4
(lp5
sS'energy'
p6
F2080.0
sS'lOfOperand'
p7
(lp8
sS'lOfRawValues'
p9
(lp10
sS'setUpNumber'
p11
I0
sS'quality_is_set'
p12
I01
sS'dealingWithPics'
p13
I00
sS'quality'
p14
cnumpy.core.multiarray
scalar
p15
(cnumpy
dtype
p16
(S'f8'
p17
I0
I1
tp18
Rp19
(I3
S'<'
p20
NNNI-1
I-1
I0
tp21
bS'\x00\x00\x00\x00\x00\x00\x00\x00'
p22
tp23
Rp24
sS'setUp'
p25
(lp26
(lp27
S'btm'
p28
aI32
aI0
aa(lp29
S'bta'
p30
aI32
aI0
aI0
aI0
aag27
ag29
ag29
asb.(ipoints_class
points
p0
(dp1
S'lOfError'
p2
(lp3
sS'lOfAccurateValues'
p4
(lp5
sS'energy'
p6
F1756.0
sS'lOfOperand'
p7
(lp8
sS'lOfRawValues'
p9
(lp10
sS'setUpNumber'
p11
I0
sS'quality_is_set'
p12
I01
sS'dealingWithPics'
p13
I00
sS'quality'
p14
cnumpy.core.multiarray
scalar
p15
(cnumpy
dtype
p16
(S'f8'
p17
I0
I1
tp18
Rp19
(I3
S'<'
p20
NNNI-1
I-1
I0
tp21
bS'!\x0e\xa6a\xaaYb='
p22
tp23
Rp24
sS'setUp'
p25
(lp26
(lp27
S'btm'
p28
aI32
aI3
aa(lp29
S'bta'
p30
aI32
aI0
aI0
aI0
aa(lp31
g28
aI32
aI7
aa(lp32
g30
aI32
aI7
aI0
aI0
aa(lp33
g30
aI32
aI7
aI0
aI0
aasb.(ipoints_class
points
p0
(dp1
S'lOfError'
p2
(lp3
sS'lOfAccurateValues'
p4
(lp5
sS'energy'
p6
F1336.0
sS'lOfOperand'
p7
(lp8
sS'lOfRawValues'
p9
(lp10
sS'setUpNumber'
p11
I0
sS'quality_is_set'
p12
I01
sS'dealingWithPics'
p13
I00
sS'quality'
p14
cnumpy.core.multiarray
scalar
p15
(cnumpy
dtype
p16
(S'f8'
p17
I0
I1
tp18
Rp19
(I3
S'<'
p20
NNNI-1
I-1
I0
tp21
bS'1\xb9\x96\xfe\x9fC>@'
p22
tp23
Rp24
sS'setUp'
p25
(lp26
(lp27
S'btm'
p28
aI32
aI12
aa(lp29
S'bta'
p30
aI32
aI8
aI0
aI0
aa(lp31
g28
aI32
aI11
aa(lp32
g30
aI32
aI13
aI0
aI0
aa(lp33
g30
aI32
aI10
aI0
aI0
aasb.(ipoints_class
points
p0
(dp1
S'lOfError'
p2
(lp3
sS'lOfAccurateValues'
p4
(lp5
sS'energy'
p6
F2047.0
sS'lOfOperand'
p7
(lp8
sS'lOfRawValues'
p9
(lp10
sS'setUpNumber'
p11
I0
sS'quality_is_set'
p12
I01
sS'dealingWithPics'
p13
I00
sS'quality'
p14
cnumpy.core.multiarray
scalar
p15
(cnumpy
dtype
p16
(S'f8'
p17
I0
I1
tp18
Rp19
(I3
S'<'
p20
NNNI-1
I-1
I0
tp21
bS'F\x9f\xff\xcer\x12\xf5<'
p22
tp23
Rp24
sS'setUp'
p25
(lp26
(lp27
S'btm'
p28
aI32
aI0
aa(lp29
S'bta'
p30
aI32
aI0
aI0
aI0
aa(lp31
g28
aI32
aI1
aa(lp32
g30
aI32
aI2
aI0
aI0
aag29
asb.(ipoints_class
points
p0
(dp1
S'lOfError'
p2
(lp3
sS'lOfAccurateValues'
p4
(lp5
sS'energy'
p6
F1249.0
sS'lOfOperand'
p7
(lp8
sS'lOfRawValues'
p9
(lp10
sS'setUpNumber'
p11
I0
sS'quality_is_set'
p12
I01
sS'dealingWithPics'
p13
I00
sS'quality'
p14
cnumpy.core.multiarray
scalar
p15
(cnumpy
dtype
p16
(S'f8'
p17
I0
I1
tp18
Rp19
(I3
S'<'
p20
NNNI-1
I-1
I0
tp21
bS'\x07:\xe8\x82\xcc\x86F@'
p22
tp23
Rp24
sS'setUp'
p25
(lp26
(lp27
S'btm'
p28
aI32
aI12
aa(lp29
S'bta'
p30
aI32
aI6
aI0
aI0
aa(lp31
g28
aI32
aI14
aa(lp32
g30
aI32
aI10
aI0
aI0
aa(lp33
g30
aI32
aI9
aI0
aI0
aasb.